; Function Attrs: nounwind uwtable
define i32 @ASN1_INTEGER_set_uint64(ptr noundef initializes((4, 8)) %0, i64 noundef %1) local_unnamed_addr #0 {
  %3 = alloca [8 x i8], align 1
  call void @llvm.lifetime.start.p0(i64 8, ptr nonnull %3) #6
  %4 = getelementptr inbounds nuw i8, ptr %0, i64 4
  store i32 2, ptr %4, align 4, !tbaa !3
  br label %5

5:                                                ; preds = %5, %2
  %.04.i.i = phi i64 [ %1, %2 ], [ %9, %5 ]
  %.0.i.i = phi i64 [ 8, %2 ], [ %7, %5 ]
  %6 = trunc i64 %.04.i.i to i8
  %7 = add nsw i64 %.0.i.i, -1
  %8 = getelementptr inbounds nuw i8, ptr %3, i64 %7
  store i8 %6, ptr %8, align 1, !tbaa !13
  %9 = lshr i64 %.04.i.i, 8
  %.not.i.i = icmp ult i64 %.04.i.i, 256
  br i1 %.not.i.i, label %asn1_string_set_uint64.exit, label %5, !llvm.loop !24

asn1_string_set_uint64.exit:                      ; preds = %5
  %10 = getelementptr inbounds nuw i8, ptr %3, i64 %7
  %11 = trunc i64 %7 to i32
  %12 = sub i32 8, %11
  %13 = call i32 @ASN1_STRING_set(ptr noundef %0, ptr noundef nonnull %10, i32 noundef %12) #6
  call void @llvm.lifetime.end.p0(i64 8, ptr nonnull %3) #6
  ret i32 %13
}